; Function Attrs: mustprogress nofree norecurse nosync nounwind willreturn memory(read, argmem: readwrite, inaccessiblemem: none) uwtable
define ptr @Cudd_addXnor(ptr noundef readonly captures(none) %0, ptr noundef captures(none) %1, ptr noundef captures(none) %2) local_unnamed_addr #3 {
  %4 = load ptr, ptr %1, align 8, !tbaa !26
  %5 = load ptr, ptr %2, align 8, !tbaa !26
  %6 = icmp eq ptr %4, %5
  br i1 %6, label %7, label %10

7:                                                ; preds = %3
  %8 = getelementptr inbounds nuw i8, ptr %0, i64 40
  %9 = load ptr, ptr %8, align 8, !tbaa !33
  br label %21

10:                                               ; preds = %3
  %11 = load i32, ptr %4, align 8, !tbaa !27
  %12 = icmp eq i32 %11, 2147483647
  br i1 %12, label %13, label %18

13:                                               ; preds = %10
  %14 = getelementptr inbounds nuw i8, ptr %0, i64 48
  %15 = load ptr, ptr %14, align 8, !tbaa !32
  %16 = load i32, ptr %5, align 8, !tbaa !27
  %17 = icmp eq i32 %16, 2147483647
  br i1 %17, label %21, label %18

18:                                               ; preds = %13, %10
  %19 = icmp ugt ptr %4, %5
  br i1 %19, label %20, label %21

20:                                               ; preds = %18
  store ptr %5, ptr %1, align 8, !tbaa !26
  store ptr %4, ptr %2, align 8, !tbaa !26
  br label %21

21:                                               ; preds = %13, %18, %20, %7
  %.0 = phi ptr [ %9, %7 ], [ null, %20 ], [ null, %18 ], [ %15, %13 ]
  ret ptr %.0
}